target datalayout = "e-m:e-p270:32:32-p271:32:32-p272:64:64-i64:64-i128:128-f80:128-n8:16:32:64-S128"
target triple = "x86_64-pc-linux-gnu"

; Function Attrs: nounwind uwtable
define void @Wlc_BlastShiftRightInt(ptr noundef %0, ptr noundef %1, i32 noundef %2, ptr noundef %3, i32 noundef %4, i32 noundef %5, ptr noundef %6) #0 {
  %8 = alloca ptr, align 8
  %9 = alloca ptr, align 8
  %10 = alloca i32, align 4
  %11 = alloca ptr, align 8
  %12 = alloca i32, align 4
  %13 = alloca i32, align 4
  %14 = alloca ptr, align 8
  %15 = alloca ptr, align 8
  %16 = alloca i32, align 4
  %17 = alloca i32, align 4
  %18 = alloca i32, align 4
  %19 = alloca i32, align 4
  store ptr %0, ptr %8, align 8, !tbaa !38
  store ptr %1, ptr %9, align 8, !tbaa !3
  store i32 %2, ptr %10, align 4, !tbaa !8
  store ptr %3, ptr %11, align 8, !tbaa !3
  store i32 %4, ptr %12, align 4, !tbaa !8
  store i32 %5, ptr %13, align 4, !tbaa !8
  store ptr %6, ptr %14, align 8, !tbaa !31
  call void @llvm.lifetime.start.p0(i64 8, ptr %15) #12
  %20 = load ptr, ptr %14, align 8, !tbaa !31
  %21 = load ptr, ptr %9, align 8, !tbaa !3
  %22 = load i32, ptr %10, align 4, !tbaa !8
  %23 = call ptr @Wlc_VecCopy(ptr noundef %20, ptr noundef %21, i32 noundef %22)
  store ptr %23, ptr %15, align 8, !tbaa !3
  call void @llvm.lifetime.start.p0(i64 4, ptr %16) #12
  %24 = load i32, ptr %13, align 4, !tbaa !8
  %25 = icmp ne i32 %24, 0
  br i1 %25, label %26, label %33

26:                                               ; preds = %7
  %27 = load ptr, ptr %9, align 8, !tbaa !3
  %28 = load i32, ptr %10, align 4, !tbaa !8
  %29 = sub nsw i32 %28, 1
  %30 = sext i32 %29 to i64
  %31 = getelementptr inbounds i32, ptr %27, i64 %30
  %32 = load i32, ptr %31, align 4, !tbaa !8
  br label %34

33:                                               ; preds = %7
  br label %34

34:                                               ; preds = %33, %26
  %35 = phi i32 [ %32, %26 ], [ 0, %33 ]
  store i32 %35, ptr %16, align 4, !tbaa !8
  call void @llvm.lifetime.start.p0(i64 4, ptr %17) #12
  call void @llvm.lifetime.start.p0(i64 4, ptr %18) #12
  call void @llvm.lifetime.start.p0(i64 4, ptr %19) #12
  store i32 0, ptr %19, align 4, !tbaa !8
  store i32 0, ptr %17, align 4, !tbaa !8
  br label %36

36:                                               ; preds = %111, %34
  %37 = load i32, ptr %17, align 4, !tbaa !8
  %38 = load i32, ptr %12, align 4, !tbaa !8
  %39 = icmp slt i32 %37, %38
  br i1 %39, label %40, label %114

40:                                               ; preds = %36
  store i32 0, ptr %18, align 4, !tbaa !8
  br label %41

41:                                               ; preds = %107, %40
  %42 = load i32, ptr %18, align 4, !tbaa !8
  %43 = load i32, ptr %10, align 4, !tbaa !8
  %44 = load i32, ptr %13, align 4, !tbaa !8
  %45 = sub nsw i32 %43, %44
  %46 = icmp slt i32 %42, %45
  br i1 %46, label %47, label %110

47:                                               ; preds = %41
  %48 = load i32, ptr %19, align 4, !tbaa !8
  %49 = icmp ne i32 %48, 0
  br i1 %49, label %57, label %50

50:                                               ; preds = %47
  %51 = load i32, ptr %18, align 4, !tbaa !8
  %52 = load i32, ptr %17, align 4, !tbaa !8
  %53 = shl i32 1, %52
  %54 = add nsw i32 %51, %53
  %55 = load i32, ptr %10, align 4, !tbaa !8
  %56 = icmp sge i32 %54, %55
  br i1 %56, label %57, label %81

57:                                               ; preds = %50, %47
  %58 = load ptr, ptr %8, align 8, !tbaa !38
  %59 = load ptr, ptr %11, align 8, !tbaa !3
  %60 = load i32, ptr %17, align 4, !tbaa !8
  %61 = sext i32 %60 to i64
  %62 = getelementptr inbounds i32, ptr %59, i64 %61
  %63 = load i32, ptr %62, align 4, !tbaa !8
  %64 = load i32, ptr %16, align 4, !tbaa !8
  %65 = load ptr, ptr %15, align 8, !tbaa !3
  %66 = load i32, ptr %18, align 4, !tbaa !8
  %67 = sext i32 %66 to i64
  %68 = getelementptr inbounds i32, ptr %65, i64 %67
  %69 = load i32, ptr %68, align 4, !tbaa !8
  %70 = call i32 @Gia_ManHashMux(ptr noundef %58, i32 noundef %63, i32 noundef %64, i32 noundef %69)
  %71 = load ptr, ptr %15, align 8, !tbaa !3
  %72 = load i32, ptr %18, align 4, !tbaa !8
  %73 = sext i32 %72 to i64
  %74 = getelementptr inbounds i32, ptr %71, i64 %73
  store i32 %70, ptr %74, align 4, !tbaa !8
  %75 = load i32, ptr %17, align 4, !tbaa !8
  %76 = shl i32 1, %75
  %77 = load i32, ptr %10, align 4, !tbaa !8
  %78 = icmp sgt i32 %76, %77
  br i1 %78, label %79, label %80

79:                                               ; preds = %57
  store i32 1, ptr %19, align 4, !tbaa !8
  br label %80

80:                                               ; preds = %79, %57
  br label %106

81:                                               ; preds = %50
  %82 = load ptr, ptr %8, align 8, !tbaa !38
  %83 = load ptr, ptr %11, align 8, !tbaa !3
  %84 = load i32, ptr %17, align 4, !tbaa !8
  %85 = sext i32 %84 to i64
  %86 = getelementptr inbounds i32, ptr %83, i64 %85
  %87 = load i32, ptr %86, align 4, !tbaa !8
  %88 = load ptr, ptr %15, align 8, !tbaa !3
  %89 = load i32, ptr %18, align 4, !tbaa !8
  %90 = load i32, ptr %17, align 4, !tbaa !8
  %91 = shl i32 1, %90
  %92 = add nsw i32 %89, %91
  %93 = sext i32 %92 to i64
  %94 = getelementptr inbounds i32, ptr %88, i64 %93
  %95 = load i32, ptr %94, align 4, !tbaa !8
  %96 = load ptr, ptr %15, align 8, !tbaa !3
  %97 = load i32, ptr %18, align 4, !tbaa !8
  %98 = sext i32 %97 to i64
  %99 = getelementptr inbounds i32, ptr %96, i64 %98
  %100 = load i32, ptr %99, align 4, !tbaa !8
  %101 = call i32 @Gia_ManHashMux(ptr noundef %82, i32 noundef %87, i32 noundef %95, i32 noundef %100)
  %102 = load ptr, ptr %15, align 8, !tbaa !3
  %103 = load i32, ptr %18, align 4, !tbaa !8
  %104 = sext i32 %103 to i64
  %105 = getelementptr inbounds i32, ptr %102, i64 %104
  store i32 %101, ptr %105, align 4, !tbaa !8
  br label %106

106:                                              ; preds = %81, %80
  br label %107

107:                                              ; preds = %106
  %108 = load i32, ptr %18, align 4, !tbaa !8
  %109 = add nsw i32 %108, 1
  store i32 %109, ptr %18, align 4, !tbaa !8
  br label %41, !llvm.loop !60

110:                                              ; preds = %41
  br label %111

111:                                              ; preds = %110
  %112 = load i32, ptr %17, align 4, !tbaa !8
  %113 = add nsw i32 %112, 1
  store i32 %113, ptr %17, align 4, !tbaa !8
  br label %36, !llvm.loop !61

114:                                              ; preds = %36
  call void @llvm.lifetime.end.p0(i64 4, ptr %19) #12
  call void @llvm.lifetime.end.p0(i64 4, ptr %18) #12
  call void @llvm.lifetime.end.p0(i64 4, ptr %17) #12
  call void @llvm.lifetime.end.p0(i64 4, ptr %16) #12
  call void @llvm.lifetime.end.p0(i64 8, ptr %15) #12
  ret void
}