; Function Attrs: nounwind uwtable
define void @Wlc_BlastShiftRightInt(ptr noundef %0, ptr noundef readonly captures(none) %1, i32 noundef %2, ptr noundef readonly captures(none) %3, i32 noundef %4, i32 noundef %5, ptr noundef captures(none) initializes((4, 8)) %6) local_unnamed_addr #2 {
  %8 = tail call ptr @Wlc_VecCopy(ptr noundef %6, ptr noundef %1, i32 noundef %2)
  %.not = icmp eq i32 %5, 0
  br i1 %.not, label %14, label %9

9:                                                ; preds = %7
  %10 = sext i32 %2 to i64
  %11 = getelementptr i32, ptr %1, i64 %10
  %12 = getelementptr i8, ptr %11, i64 -4
  %13 = load i32, ptr %12, align 4, !tbaa !3
  br label %14

14:                                               ; preds = %7, %9
  %15 = phi i32 [ %13, %9 ], [ 0, %7 ]
  %16 = icmp sgt i32 %4, 0
  br i1 %16, label %.preheader.lr.ph, label %._crit_edge45

.preheader.lr.ph:                                 ; preds = %14
  %17 = sub nsw i32 %2, %5
  %18 = icmp sgt i32 %17, 0
  br i1 %18, label %.preheader.us.preheader, label %._crit_edge45

.preheader.us.preheader:                          ; preds = %.preheader.lr.ph
  %19 = sext i32 %2 to i64
  %wide.trip.count65 = zext nneg i32 %4 to i64
  %wide.trip.count = zext nneg i32 %17 to i64
  %wide.trip.count60 = zext nneg i32 %17 to i64
  br label %.preheader.us

.preheader.us:                                    ; preds = %.preheader.us.preheader, %._crit_edge.us
  %indvars.iv62 = phi i64 [ 0, %.preheader.us.preheader ], [ %indvars.iv.next63, %._crit_edge.us ]
  %.044.us = phi i32 [ 0, %.preheader.us.preheader ], [ %.us-phi.us, %._crit_edge.us ]
  %20 = trunc nuw nsw i64 %indvars.iv62 to i32
  %21 = shl nuw i32 1, %20
  %.fr = freeze i32 %21
  %22 = getelementptr inbounds nuw i32, ptr %3, i64 %indvars.iv62
  %23 = icmp sgt i32 %.fr, %2
  %24 = sext i32 %.fr to i64
  br i1 %23, label %.lr.ph.split.us.us, label %.lr.ph.split.us53.preheader

.lr.ph.split.us53.preheader:                      ; preds = %.preheader.us
  %.not39.us48 = icmp eq i32 %.044.us, 0
  br label %.lr.ph.split.us53

.lr.ph.split.us53:                                ; preds = %.lr.ph.split.us53.preheader, %39
  %indvars.iv = phi i64 [ 0, %.lr.ph.split.us53.preheader ], [ %indvars.iv.next, %39 ]
  br i1 %.not39.us48, label %25, label %27

25:                                               ; preds = %.lr.ph.split.us53
  %26 = add nuw nsw i64 %indvars.iv, %24
  %.not40.us49 = icmp slt i64 %26, %19
  br i1 %.not40.us49, label %32, label %27

27:                                               ; preds = %25, %.lr.ph.split.us53
  %28 = load i32, ptr %22, align 4, !tbaa !3
  %29 = getelementptr inbounds nuw i32, ptr %8, i64 %indvars.iv
  %30 = load i32, ptr %29, align 4, !tbaa !3
  %31 = tail call i32 @Gia_ManHashMux(ptr noundef %0, i32 noundef %28, i32 noundef %15, i32 noundef %30) #23
  store i32 %31, ptr %29, align 4, !tbaa !3
  br label %39

32:                                               ; preds = %25
  %33 = load i32, ptr %22, align 4, !tbaa !3
  %34 = getelementptr inbounds i32, ptr %8, i64 %26
  %35 = load i32, ptr %34, align 4, !tbaa !3
  %36 = getelementptr inbounds nuw i32, ptr %8, i64 %indvars.iv
  %37 = load i32, ptr %36, align 4, !tbaa !3
  %38 = tail call i32 @Gia_ManHashMux(ptr noundef %0, i32 noundef %33, i32 noundef %35, i32 noundef %37) #23
  store i32 %38, ptr %36, align 4, !tbaa !3
  br label %39

39:                                               ; preds = %32, %27
  %indvars.iv.next = add nuw nsw i64 %indvars.iv, 1
  %exitcond.not = icmp eq i64 %indvars.iv.next, %wide.trip.count
  br i1 %exitcond.not, label %._crit_edge.us, label %.lr.ph.split.us53, !llvm.loop !51

._crit_edge.us:                                   ; preds = %39, %54
  %.us-phi.us = phi i32 [ %.2.us.us, %54 ], [ %.044.us, %39 ]
  %indvars.iv.next63 = add nuw nsw i64 %indvars.iv62, 1
  %exitcond66.not = icmp eq i64 %indvars.iv.next63, %wide.trip.count65
  br i1 %exitcond66.not, label %._crit_edge45, label %.preheader.us, !llvm.loop !52

.lr.ph.split.us.us:                               ; preds = %.preheader.us, %54
  %indvars.iv57 = phi i64 [ %indvars.iv.next58, %54 ], [ 0, %.preheader.us ]
  %.142.us.us = phi i32 [ %.2.us.us, %54 ], [ %.044.us, %.preheader.us ]
  %.not39.us.us = icmp eq i32 %.142.us.us, 0
  br i1 %.not39.us.us, label %40, label %42

40:                                               ; preds = %.lr.ph.split.us.us
  %41 = add nuw nsw i64 %indvars.iv57, %24
  %.not40.us.us = icmp slt i64 %41, %19
  br i1 %.not40.us.us, label %47, label %42

42:                                               ; preds = %40, %.lr.ph.split.us.us
  %43 = load i32, ptr %22, align 4, !tbaa !3
  %44 = getelementptr inbounds nuw i32, ptr %8, i64 %indvars.iv57
  %45 = load i32, ptr %44, align 4, !tbaa !3
  %46 = tail call i32 @Gia_ManHashMux(ptr noundef %0, i32 noundef %43, i32 noundef %15, i32 noundef %45) #23
  store i32 %46, ptr %44, align 4, !tbaa !3
  br label %54

47:                                               ; preds = %40
  %48 = load i32, ptr %22, align 4, !tbaa !3
  %49 = getelementptr inbounds i32, ptr %8, i64 %41
  %50 = load i32, ptr %49, align 4, !tbaa !3
  %51 = getelementptr inbounds nuw i32, ptr %8, i64 %indvars.iv57
  %52 = load i32, ptr %51, align 4, !tbaa !3
  %53 = tail call i32 @Gia_ManHashMux(ptr noundef %0, i32 noundef %48, i32 noundef %50, i32 noundef %52) #23
  store i32 %53, ptr %51, align 4, !tbaa !3
  br label %54

54:                                               ; preds = %47, %42
  %.2.us.us = phi i32 [ 0, %47 ], [ 1, %42 ]
  %indvars.iv.next58 = add nuw nsw i64 %indvars.iv57, 1
  %exitcond61.not = icmp eq i64 %indvars.iv.next58, %wide.trip.count60
  br i1 %exitcond61.not, label %._crit_edge.us, label %.lr.ph.split.us.us, !llvm.loop !51

._crit_edge45:                                    ; preds = %._crit_edge.us, %.preheader.lr.ph, %14
  ret void
}